target datalayout = "e-m:e-p270:32:32-p271:32:32-p272:64:64-i64:64-i128:128-f80:128-n8:16:32:64-S128"
target triple = "x86_64-pc-linux-gnu"

@hf_gsm_a_dtap_epc_bearing = internal global i32 0, align 4
@hf_gsm_a_dtap_epc_horizontal_speed = internal global i32 0, align 4

; Function Attrs: null_pointer_is_valid sspstrong uwtable
define internal zeroext i16 @de_tp_epc_horizontal_velocity(ptr noundef %0, ptr noundef %1, ptr noundef %2, i32 noundef %3, i32 noundef %4, ptr noundef %5, i32 noundef %6) #1 {
  %8 = alloca ptr, align 8
  %9 = alloca ptr, align 8
  %10 = alloca ptr, align 8
  %11 = alloca i32, align 4
  %12 = alloca i32, align 4
  %13 = alloca ptr, align 8
  %14 = alloca i32, align 4
  %15 = alloca i32, align 4
  store ptr %0, ptr %8, align 8
  store ptr %1, ptr %9, align 8
  store ptr %2, ptr %10, align 8
  store i32 %3, ptr %11, align 4
  store i32 %4, ptr %12, align 4
  store ptr %5, ptr %13, align 8
  store i32 %6, ptr %14, align 4
  call void @llvm.lifetime.start.p0(i64 4, ptr %15) #7
  %16 = load i32, ptr %11, align 4
  store i32 %16, ptr %15, align 4
  %17 = load ptr, ptr %9, align 8
  %18 = load i32, ptr @hf_gsm_a_dtap_epc_bearing, align 4
  %19 = load ptr, ptr %8, align 8
  %20 = load i32, ptr %15, align 4
  %21 = shl i32 %20, 3
  %22 = call ptr @proto_tree_add_bits_item(ptr noundef %17, i32 noundef %18, ptr noundef %19, i32 noundef %21, i32 noundef 9, i32 noundef 0)
  %23 = load ptr, ptr %9, align 8
  %24 = load i32, ptr @hf_gsm_a_dtap_epc_horizontal_speed, align 4
  %25 = load ptr, ptr %8, align 8
  %26 = load i32, ptr %15, align 4
  %27 = shl i32 %26, 3
  %28 = add i32 %27, 9
  %29 = call ptr @proto_tree_add_bits_item(ptr noundef %23, i32 noundef %24, ptr noundef %25, i32 noundef %28, i32 noundef 11, i32 noundef 0)
  %30 = load i32, ptr %15, align 4
  %31 = add i32 %30, 3
  store i32 %31, ptr %15, align 4
  %32 = load i32, ptr %15, align 4
  %33 = load i32, ptr %11, align 4
  %34 = sub i32 %32, %33
  %35 = trunc i32 %34 to i16
  call void @llvm.lifetime.end.p0(i64 4, ptr %15) #7
  ret i16 %35
}